; Function Attrs: mustprogress uwtable
define noundef nonnull ptr @grpc_completion_queue_factory_lookup(ptr noundef readonly captures(none) %0) local_unnamed_addr #3 personality ptr @__gxx_personality_v0 {
  %2 = alloca %"class.absl::lts_20240722::log_internal::LogMessageFatal", align 8
  %3 = load i32, ptr %0, align 8, !tbaa !3
  %4 = add i32 %3, -3
  %or.cond = icmp ult i32 %4, -2
  br i1 %or.cond, label %.critedge6, label %.critedge, !prof !12

.critedge6:                                       ; preds = %1
  call void @llvm.lifetime.start.p0(i64 16, ptr nonnull %2) #17
  call void @_ZN4absl12lts_2024072212log_internal15LogMessageFatalC1EPKciSt17basic_string_viewIcSt11char_traitsIcEE(ptr noundef nonnull align 8 dereferenceable(16) %2, ptr noundef nonnull @.str, i32 noundef 51, i64 74, ptr nonnull @.str.1) #18
  call void @_ZN4absl12lts_2024072212log_internal15LogMessageFatalD1Ev(ptr noundef nonnull align 8 dereferenceable(16) %2) #19
  unreachable

.critedge:                                        ; preds = %1
  ret ptr @_ZL20g_default_cq_factory
}